; ModuleID = '63/2016.c'
source_filename = "63/2016.c"
target datalayout = "e-m:e-p270:32:32-p271:32:32-p272:64:64-i64:64-f80:128-n8:16:32:64-S128"
target triple = "x86_64-pc-linux-gnu"

@.str = private unnamed_addr constant [6 x i8] c"%d %d\00", align 1
@.str.1 = private unnamed_addr constant [4 x i8] c"%d \00", align 1
@.str.2 = private unnamed_addr constant [4 x i8] c"%d\0A\00", align 1

; Function Attrs: noinline nounwind uwtable
define dso_local i32 @main() #0 {
  %1 = alloca i32, align 4
  %2 = alloca [100 x [100 x i32]], align 16
  %3 = alloca [100 x [100 x i32]], align 16
  %4 = alloca [100 x [100 x i32]], align 16
  %5 = alloca i32, align 4
  %6 = alloca i32, align 4
  %7 = alloca i32, align 4
  %8 = alloca i32, align 4
  %9 = alloca i32, align 4
  %10 = alloca i32, align 4
  %11 = alloca i32, align 4
  %12 = alloca i32, align 4
  %13 = alloca i32, align 4
  %14 = alloca i32, align 4
  %15 = alloca i32, align 4
  %16 = alloca i32, align 4
  store i32 0, i32* %1, align 4
  %17 = getelementptr inbounds [100 x [100 x i32]], [100 x [100 x i32]]* %4, i64 0, i64 0
  %18 = bitcast [100 x i32]* %17 to i8*
  call void @llvm.memset.p0i8.i64(i8* align 16 %18, i8 0, i64 40000, i1 false)
  %19 = call i32 (i8*, ...) @__isoc99_scanf(i8* getelementptr inbounds ([6 x i8], [6 x i8]* @.str, i64 0, i64 0), i32* %5, i32* %6)
  store i32 0, i32* %9, align 4
  br label %20

20:                                               ; preds = %43, %0
  %21 = load i32, i32* %9, align 4
  %22 = load i32, i32* %5, align 4
  %23 = sub nsw i32 %22, 1
  %24 = icmp sle i32 %21, %23
  br i1 %24, label %25, label %46

25:                                               ; preds = %20
  store i32 0, i32* %10, align 4
  br label %26

26:                                               ; preds = %39, %25
  %27 = load i32, i32* %10, align 4
  %28 = load i32, i32* %6, align 4
  %29 = sub nsw i32 %28, 1
  %30 = icmp sle i32 %27, %29
  br i1 %30, label %31, label %42

31:                                               ; preds = %26
  %32 = load i32, i32* %9, align 4
  %33 = sext i32 %32 to i64
  %34 = getelementptr inbounds [100 x [100 x i32]], [100 x [100 x i32]]* %2, i64 0, i64 %33
  %35 = load i32, i32* %10, align 4
  %36 = sext i32 %35 to i64
  %37 = getelementptr inbounds [100 x i32], [100 x i32]* %34, i64 0, i64 %36
  %38 = call i32 (i8*, ...) @__isoc99_scanf(i8* getelementptr inbounds ([4 x i8], [4 x i8]* @.str.1, i64 0, i64 0), i32* %37)
  br label %39

39:                                               ; preds = %31
  %40 = load i32, i32* %10, align 4
  %41 = add nsw i32 %40, 1
  store i32 %41, i32* %10, align 4
  br label %26

42:                                               ; preds = %26
  br label %43

43:                                               ; preds = %42
  %44 = load i32, i32* %9, align 4
  %45 = add nsw i32 %44, 1
  store i32 %45, i32* %9, align 4
  br label %20

46:                                               ; preds = %20
  %47 = call i32 (i8*, ...) @__isoc99_scanf(i8* getelementptr inbounds ([6 x i8], [6 x i8]* @.str, i64 0, i64 0), i32* %7, i32* %8)
  store i32 0, i32* %11, align 4
  br label %48

48:                                               ; preds = %71, %46
  %49 = load i32, i32* %11, align 4
  %50 = load i32, i32* %7, align 4
  %51 = sub nsw i32 %50, 1
  %52 = icmp sle i32 %49, %51
  br i1 %52, label %53, label %74

53:                                               ; preds = %48
  store i32 0, i32* %12, align 4
  br label %54

54:                                               ; preds = %67, %53
  %55 = load i32, i32* %12, align 4
  %56 = load i32, i32* %8, align 4
  %57 = sub nsw i32 %56, 1
  %58 = icmp sle i32 %55, %57
  br i1 %58, label %59, label %70

59:                                               ; preds = %54
  %60 = load i32, i32* %11, align 4
  %61 = sext i32 %60 to i64
  %62 = getelementptr inbounds [100 x [100 x i32]], [100 x [100 x i32]]* %3, i64 0, i64 %61
  %63 = load i32, i32* %12, align 4
  %64 = sext i32 %63 to i64
  %65 = getelementptr inbounds [100 x i32], [100 x i32]* %62, i64 0, i64 %64
  %66 = call i32 (i8*, ...) @__isoc99_scanf(i8* getelementptr inbounds ([4 x i8], [4 x i8]* @.str.1, i64 0, i64 0), i32* %65)
  br label %67

67:                                               ; preds = %59
  %68 = load i32, i32* %12, align 4
  %69 = add nsw i32 %68, 1
  store i32 %69, i32* %12, align 4
  br label %54

70:                                               ; preds = %54
  br label %71

71:                                               ; preds = %70
  %72 = load i32, i32* %11, align 4
  %73 = add nsw i32 %72, 1
  store i32 %73, i32* %11, align 4
  br label %48

74:                                               ; preds = %48
  store i32 0, i32* %13, align 4
  br label %75

75:                                               ; preds = %150, %74
  %76 = load i32, i32* %13, align 4
  %77 = load i32, i32* %5, align 4
  %78 = icmp slt i32 %76, %77
  br i1 %78, label %79, label %153

79:                                               ; preds = %75
  store i32 0, i32* %14, align 4
  br label %80

80:                                               ; preds = %146, %79
  %81 = load i32, i32* %14, align 4
  %82 = load i32, i32* %8, align 4
  %83 = icmp slt i32 %81, %82
  br i1 %83, label %84, label %149

84:                                               ; preds = %80
  store i32 0, i32* %15, align 4
  br label %85

85:                                               ; preds = %119, %84
  %86 = load i32, i32* %15, align 4
  %87 = load i32, i32* %6, align 4
  %88 = icmp slt i32 %86, %87
  br i1 %88, label %89, label %122

89:                                               ; preds = %85
  %90 = load i32, i32* %13, align 4
  %91 = sext i32 %90 to i64
  %92 = getelementptr inbounds [100 x [100 x i32]], [100 x [100 x i32]]* %4, i64 0, i64 %91
  %93 = load i32, i32* %14, align 4
  %94 = sext i32 %93 to i64
  %95 = getelementptr inbounds [100 x i32], [100 x i32]* %92, i64 0, i64 %94
  %96 = load i32, i32* %95, align 4
  %97 = load i32, i32* %13, align 4
  %98 = sext i32 %97 to i64
  %99 = getelementptr inbounds [100 x [100 x i32]], [100 x [100 x i32]]* %2, i64 0, i64 %98
  %100 = load i32, i32* %15, align 4
  %101 = sext i32 %100 to i64
  %102 = getelementptr inbounds [100 x i32], [100 x i32]* %99, i64 0, i64 %101
  %103 = load i32, i32* %102, align 4
  %104 = load i32, i32* %15, align 4
  %105 = sext i32 %104 to i64
  %106 = getelementptr inbounds [100 x [100 x i32]], [100 x [100 x i32]]* %3, i64 0, i64 %105
  %107 = load i32, i32* %14, align 4
  %108 = sext i32 %107 to i64
  %109 = getelementptr inbounds [100 x i32], [100 x i32]* %106, i64 0, i64 %108
  %110 = load i32, i32* %109, align 4
  %111 = mul nsw i32 %103, %110
  %112 = add nsw i32 %96, %111
  %113 = load i32, i32* %13, align 4
  %114 = sext i32 %113 to i64
  %115 = getelementptr inbounds [100 x [100 x i32]], [100 x [100 x i32]]* %4, i64 0, i64 %114
  %116 = load i32, i32* %14, align 4
  %117 = sext i32 %116 to i64
  %118 = getelementptr inbounds [100 x i32], [100 x i32]* %115, i64 0, i64 %117
  store i32 %112, i32* %118, align 4
  br label %119

119:                                              ; preds = %89
  %120 = load i32, i32* %15, align 4
  %121 = add nsw i32 %120, 1
  store i32 %121, i32* %15, align 4
  br label %85

122:                                              ; preds = %85
  %123 = load i32, i32* %14, align 4
  %124 = load i32, i32* %8, align 4
  %125 = sub nsw i32 %124, 1
  %126 = icmp eq i32 %123, %125
  br i1 %126, label %127, label %136

127:                                              ; preds = %122
  %128 = load i32, i32* %13, align 4
  %129 = sext i32 %128 to i64
  %130 = getelementptr inbounds [100 x [100 x i32]], [100 x [100 x i32]]* %4, i64 0, i64 %129
  %131 = load i32, i32* %14, align 4
  %132 = sext i32 %131 to i64
  %133 = getelementptr inbounds [100 x i32], [100 x i32]* %130, i64 0, i64 %132
  %134 = load i32, i32* %133, align 4
  %135 = call i32 (i8*, ...) @printf(i8* getelementptr inbounds ([4 x i8], [4 x i8]* @.str.2, i64 0, i64 0), i32 %134)
  br label %145

136:                                              ; preds = %122
  %137 = load i32, i32* %13, align 4
  %138 = sext i32 %137 to i64
  %139 = getelementptr inbounds [100 x [100 x i32]], [100 x [100 x i32]]* %4, i64 0, i64 %138
  %140 = load i32, i32* %14, align 4
  %141 = sext i32 %140 to i64
  %142 = getelementptr inbounds [100 x i32], [100 x i32]* %139, i64 0, i64 %141
  %143 = load i32, i32* %142, align 4
  %144 = call i32 (i8*, ...) @printf(i8* getelementptr inbounds ([4 x i8], [4 x i8]* @.str.1, i64 0, i64 0), i32 %143)
  br label %145

145:                                              ; preds = %136, %127
  br label %146

146:                                              ; preds = %145
  %147 = load i32, i32* %14, align 4
  %148 = add nsw i32 %147, 1
  store i32 %148, i32* %14, align 4
  br label %80

149:                                              ; preds = %80
  br label %150

150:                                              ; preds = %149
  %151 = load i32, i32* %13, align 4
  %152 = add nsw i32 %151, 1
  store i32 %152, i32* %13, align 4
  br label %75

153:                                              ; preds = %75
  %154 = load i32, i32* %1, align 4
  ret i32 %154
}

; Function Attrs: argmemonly nounwind willreturn
declare void @llvm.memset.p0i8.i64(i8* nocapture writeonly, i8, i64, i1 immarg) #1

declare dso_local i32 @__isoc99_scanf(i8*, ...) #2

declare dso_local i32 @printf(i8*, ...) #2


!llvm.module.flags = !{!0}
!llvm.ident = !{!1}

!0 = !{i32 1, !"wchar_size", i32 4}
!1 = !{!"clang version 10.0.0-4ubuntu1 "}
